target datalayout = "e-m:e-p270:32:32-p271:32:32-p272:64:64-i64:64-i128:128-f80:128-n8:16:32:64-S128"
target triple = "x86_64-pc-linux-gnu"

%struct.pmix_mca_base_framework_t = type { ptr, ptr, ptr, ptr, ptr, ptr, i32, i32, ptr, ptr, i32, i32, %struct.pmix_list_t, %struct.pmix_list_t }
%struct.pmix_list_t = type { %struct.pmix_object_t, %struct.pmix_list_item_t, i64 }
%struct.pmix_object_t = type { %union.pthread_mutex_t, ptr, i32, %struct.pmix_tma }
%union.pthread_mutex_t = type { %struct.__pthread_mutex_s }
%struct.__pthread_mutex_s = type { i32, i32, i32, i32, i32, i16, i16, %struct.__pthread_internal_list }
%struct.__pthread_internal_list = type { ptr, ptr }
%struct.pmix_tma = type { ptr, ptr, ptr, ptr, ptr, ptr, ptr, ptr }
%struct.pmix_list_item_t = type { %struct.pmix_object_t, ptr, ptr, i32 }
%struct.pmix_output_desc_t = type { i8, i8, i32, i8, i32, ptr, ptr, i32, ptr, i32, i8, i8, i8, i8, ptr, i32, i32 }
%struct.prte_process_info_t = type { %struct.pmix_proc, %struct.pmix_proc, ptr, %struct.pmix_proc, i32, i32, i32, ptr, ptr, i32, i8, ptr, i16, ptr, ptr, i8, ptr, i8 }
%struct.pmix_proc = type { [256 x i8], i32 }
%struct.prte_odls_globals_t = type { i32, %struct.pmix_list_t, ptr, i32, i32, i32, ptr, ptr, i32, i8, %struct.pmix_lock_t, ptr }
%struct.pmix_lock_t = type { i32, %struct.pmix_mutex_t, %union.pthread_cond_t, i8 }
%struct.pmix_mutex_t = type { %struct.pmix_object_t, %union.pthread_mutex_t }
%union.pthread_cond_t = type { %struct.__pthread_cond_s }
%struct.__pthread_cond_s = type { %union.__atomic_wide_counter, %union.__atomic_wide_counter, [2 x i32], [2 x i32], i32, i32, [2 x i32] }
%union.__atomic_wide_counter = type { i64 }

@prte_odls_base_framework = external global %struct.pmix_mca_base_framework_t, align 8
@pmix_output_info = external global [0 x %struct.pmix_output_desc_t], align 8
@prte_process_info = external global %struct.prte_process_info_t, align 8
@prte_odls_globals = external global %struct.prte_odls_globals_t, align 8
@.str.19 = private unnamed_addr constant [32 x i8] c"%s sending signal %d to pid %ld\00", align 1

; Function Attrs: nounwind uwtable
define internal i32 @send_signal(i32 noundef %0, i32 noundef %1) #1 {
  %3 = alloca i32, align 4
  %4 = alloca i32, align 4
  %5 = alloca i32, align 4
  %6 = alloca i32, align 4
  store i32 %0, ptr %3, align 4, !tbaa !8
  store i32 %1, ptr %4, align 4, !tbaa !8
  call void @llvm.lifetime.start.p0(i64 4, ptr %5) #13
  store i32 0, ptr %5, align 4, !tbaa !8
  call void @llvm.lifetime.start.p0(i64 4, ptr %6) #13
  %7 = load i8, ptr getelementptr inbounds nuw (%struct.prte_odls_globals_t, ptr @prte_odls_globals, i32 0, i32 9), align 4, !tbaa !122, !range !100, !noundef !101
  %8 = trunc i8 %7 to i1
  br i1 %8, label %9, label %11

9:                                                ; preds = %2
  %10 = load i32, ptr %3, align 4, !tbaa !8
  store i32 %10, ptr %6, align 4, !tbaa !8
  br label %14

11:                                               ; preds = %2
  %12 = load i32, ptr %3, align 4, !tbaa !8
  %13 = sub nsw i32 0, %12
  store i32 %13, ptr %6, align 4, !tbaa !8
  br label %14

14:                                               ; preds = %11, %9
  %15 = load i32, ptr getelementptr inbounds nuw (%struct.pmix_mca_base_framework_t, ptr @prte_odls_base_framework, i32 0, i32 11), align 4, !tbaa !10
  %16 = icmp sge i32 %15, 0
  br i1 %16, label %17, label %33

17:                                               ; preds = %14
  %18 = load i32, ptr getelementptr inbounds nuw (%struct.pmix_mca_base_framework_t, ptr @prte_odls_base_framework, i32 0, i32 11), align 4, !tbaa !10
  %19 = icmp slt i32 %18, 64
  br i1 %19, label %20, label %33

20:                                               ; preds = %17
  %21 = load i32, ptr getelementptr inbounds nuw (%struct.pmix_mca_base_framework_t, ptr @prte_odls_base_framework, i32 0, i32 11), align 4, !tbaa !10
  %22 = sext i32 %21 to i64
  %23 = getelementptr inbounds [0 x %struct.pmix_output_desc_t], ptr @pmix_output_info, i64 0, i64 %22
  %24 = getelementptr inbounds nuw %struct.pmix_output_desc_t, ptr %23, i32 0, i32 2
  %25 = load i32, ptr %24, align 4, !tbaa !21
  %26 = icmp sge i32 %25, 1
  br i1 %26, label %27, label %33

27:                                               ; preds = %20
  %28 = load i32, ptr getelementptr inbounds nuw (%struct.pmix_mca_base_framework_t, ptr @prte_odls_base_framework, i32 0, i32 11), align 4, !tbaa !10
  %29 = call ptr @prte_util_print_name_args(ptr noundef @prte_process_info)
  %30 = load i32, ptr %4, align 4, !tbaa !8
  %31 = load i32, ptr %6, align 4, !tbaa !8
  %32 = sext i32 %31 to i64
  call void (i32, ptr, ...) @pmix_output(i32 noundef %28, ptr noundef @.str.19, ptr noundef %29, i32 noundef %30, i64 noundef %32)
  br label %33

33:                                               ; preds = %27, %20, %17, %14
  %34 = load i32, ptr %6, align 4, !tbaa !8
  %35 = load i32, ptr %4, align 4, !tbaa !8
  %36 = call i32 @kill(i32 noundef %34, i32 noundef %35) #13
  %37 = icmp ne i32 %36, 0
  br i1 %37, label %38, label %45

38:                                               ; preds = %33
  %39 = call ptr @__errno_location() #14
  %40 = load i32, ptr %39, align 4, !tbaa !8
  switch i32 %40, label %43 [
    i32 22, label %41
    i32 3, label %44
    i32 1, label %42
  ]

41:                                               ; preds = %38
  store i32 -5, ptr %5, align 4, !tbaa !8
  br label %44

42:                                               ; preds = %38
  store i32 -17, ptr %5, align 4, !tbaa !8
  br label %44

43:                                               ; preds = %38
  store i32 -1, ptr %5, align 4, !tbaa !8
  br label %44

44:                                               ; preds = %43, %42, %38, %41
  br label %45

45:                                               ; preds = %44, %33
  %46 = load i32, ptr %5, align 4, !tbaa !8
  call void @llvm.lifetime.end.p0(i64 4, ptr %6) #13
  call void @llvm.lifetime.end.p0(i64 4, ptr %5) #13
  ret i32 %46
}