; Function Attrs: nounwind uwtable
define internal range(i32 -17, 1) i32 @send_signal(i32 noundef %0, i32 noundef %1) #1 {
  %3 = load i8, ptr getelementptr inbounds nuw (i8, ptr @prte_odls_globals, i64 324), align 4, !tbaa !97, !range !56, !noundef !57
  %4 = trunc nuw i8 %3 to i1
  %5 = sub nsw i32 0, %0
  %.0 = select i1 %4, i32 %0, i32 %5
  %6 = load i32, ptr getelementptr inbounds nuw (i8, ptr @prte_odls_base_framework, i64 76), align 4, !tbaa !3
  %or.cond = icmp ult i32 %6, 64
  br i1 %or.cond, label %7, label %15

7:                                                ; preds = %2
  %8 = zext nneg i32 %6 to i64
  %9 = getelementptr inbounds nuw [0 x %struct.pmix_output_desc_t], ptr @pmix_output_info, i64 0, i64 %8, i32 2
  %10 = load i32, ptr %9, align 4, !tbaa !18
  %11 = icmp sgt i32 %10, 0
  br i1 %11, label %12, label %15

12:                                               ; preds = %7
  %13 = tail call ptr @prte_util_print_name_args(ptr noundef nonnull @prte_process_info) #16
  %14 = sext i32 %.0 to i64
  tail call void (i32, ptr, ...) @pmix_output(i32 noundef %6, ptr noundef nonnull @.str.19, ptr noundef %13, i32 noundef %1, i64 noundef %14) #16
  br label %15

15:                                               ; preds = %12, %7, %2
  %16 = tail call i32 @kill(i32 noundef %.0, i32 noundef %1) #16
  %.not = icmp eq i32 %16, 0
  br i1 %.not, label %23, label %17

17:                                               ; preds = %15
  %18 = tail call ptr @__errno_location() #18
  %19 = load i32, ptr %18, align 4, !tbaa !23
  switch i32 %19, label %22 [
    i32 22, label %20
    i32 3, label %23
    i32 1, label %21
  ]

20:                                               ; preds = %17
  br label %23

21:                                               ; preds = %17
  br label %23

22:                                               ; preds = %17
  br label %23

23:                                               ; preds = %17, %20, %21, %22, %15
  %.08 = phi i32 [ -1, %22 ], [ -17, %21 ], [ 0, %17 ], [ -5, %20 ], [ 0, %15 ]
  ret i32 %.08
}